; Function Attrs: mustprogress nofree norecurse nosync nounwind willreturn memory(read, inaccessiblemem: none) uwtable
define noundef zeroext i1 @_ZNK3gmx10OptionInfo8isHiddenEv(ptr noundef nonnull readonly align 8 captures(none) dereferenceable(16) %0) local_unnamed_addr #19 align 2 {
  %2 = getelementptr inbounds nuw i8, ptr %0, i64 8
  %3 = load ptr, ptr %2, align 8, !tbaa !66
  %4 = getelementptr inbounds nuw i8, ptr %3, i64 72
  %5 = load i64, ptr %4, align 8, !tbaa !15
  %6 = and i64 %5, 64
  %7 = icmp ne i64 %6, 0
  ret i1 %7
}